target datalayout = "e-m:e-p270:32:32-p271:32:32-p272:64:64-i64:64-i128:128-f80:128-n8:16:32:64-S128"
target triple = "x86_64-pc-linux-gnu"

%struct.Dar_Lib_t_ = type { ptr, i32, i32, [222 x i32], [222 x ptr], ptr, i32, ptr, [222 x ptr], ptr, [222 x ptr], ptr, [222 x ptr], [222 x i32], [222 x ptr], ptr, i32, i32, i32, [222 x i32], [222 x ptr], ptr, i32, [222 x i32], [222 x ptr], ptr, i32, ptr, i32, ptr, ptr, ptr, ptr, ptr }
%struct.Dar_LibObj_t_ = type { i64 }
%struct.Dar_Man_t_ = type { ptr, ptr, ptr, ptr, ptr, ptr, i32, i32, i32, i32, i32, i32, [222 x i32], [222 x i32], [222 x i32], i32, i32, i32, i32, i32, i32, i32, i32, i32, i64, i64, i64, i64, i64, i64 }
%struct.Dar_LibDat_t_ = type { %union.anon, i32, i32, float, i8, [3 x i8] }
%union.anon = type { ptr }

@s_DarLib = internal global ptr null, align 8

; Function Attrs: nounwind uwtable
define internal ptr @Aig_NotCond(ptr noundef %0, i32 noundef %1) #0 {
  %3 = alloca ptr, align 8
  %4 = alloca i32, align 4
  store ptr %0, ptr %3, align 8
  store i32 %1, ptr %4, align 4
  %5 = load ptr, ptr %3, align 8
  %6 = ptrtoint ptr %5 to i64
  %7 = load i32, ptr %4, align 4
  %8 = sext i32 %7 to i64
  %9 = xor i64 %6, %8
  %10 = inttoptr i64 %9 to ptr
  ret ptr %10
}

; Function Attrs: nounwind uwtable
define internal ptr @Dar_LibObj(ptr noundef %0, i32 noundef %1) #0 {
  %3 = alloca ptr, align 8
  %4 = alloca i32, align 4
  store ptr %0, ptr %3, align 8
  store i32 %1, ptr %4, align 4
  %5 = load ptr, ptr %3, align 8
  %6 = getelementptr inbounds %struct.Dar_Lib_t_, ptr %5, i32 0, i32 0
  %7 = load ptr, ptr %6, align 8
  %8 = load i32, ptr %4, align 4
  %9 = sext i32 %8 to i64
  %10 = getelementptr inbounds %struct.Dar_LibObj_t_, ptr %7, i64 %9
  ret ptr %10
}

; Function Attrs: nounwind uwtable
define ptr @Dar_LibBuildBest_rec(ptr noundef %0, ptr noundef %1) #0 {
  %3 = alloca ptr, align 8
  %4 = alloca ptr, align 8
  %5 = alloca ptr, align 8
  %6 = alloca ptr, align 8
  %7 = alloca ptr, align 8
  %8 = alloca ptr, align 8
  store ptr %0, ptr %4, align 8
  store ptr %1, ptr %5, align 8
  %9 = load ptr, ptr @s_DarLib, align 8
  %10 = getelementptr inbounds %struct.Dar_Lib_t_, ptr %9, i32 0, i32 27
  %11 = load ptr, ptr %10, align 8
  %12 = load ptr, ptr %5, align 8
  %13 = load i64, ptr %12, align 4
  %14 = lshr i64 %13, 36
  %15 = trunc i64 %14 to i32
  %16 = sext i32 %15 to i64
  %17 = getelementptr inbounds %struct.Dar_LibDat_t_, ptr %11, i64 %16
  store ptr %17, ptr %8, align 8
  %18 = load ptr, ptr %8, align 8
  %19 = getelementptr inbounds %struct.Dar_LibDat_t_, ptr %18, i32 0, i32 0
  %20 = load ptr, ptr %19, align 8
  %21 = icmp ne ptr %20, null
  br i1 %21, label %22, label %26

22:                                               ; preds = %2
  %23 = load ptr, ptr %8, align 8
  %24 = getelementptr inbounds %struct.Dar_LibDat_t_, ptr %23, i32 0, i32 0
  %25 = load ptr, ptr %24, align 8
  store ptr %25, ptr %3, align 8
  br label %69

26:                                               ; preds = %2
  %27 = load ptr, ptr %4, align 8
  %28 = load ptr, ptr @s_DarLib, align 8
  %29 = load ptr, ptr %5, align 8
  %30 = load i64, ptr %29, align 4
  %31 = and i64 %30, 65535
  %32 = trunc i64 %31 to i32
  %33 = call ptr @Dar_LibObj(ptr noundef %28, i32 noundef %32)
  %34 = call ptr @Dar_LibBuildBest_rec(ptr noundef %27, ptr noundef %33)
  store ptr %34, ptr %6, align 8
  %35 = load ptr, ptr %4, align 8
  %36 = load ptr, ptr @s_DarLib, align 8
  %37 = load ptr, ptr %5, align 8
  %38 = load i64, ptr %37, align 4
  %39 = lshr i64 %38, 16
  %40 = and i64 %39, 65535
  %41 = trunc i64 %40 to i32
  %42 = call ptr @Dar_LibObj(ptr noundef %36, i32 noundef %41)
  %43 = call ptr @Dar_LibBuildBest_rec(ptr noundef %35, ptr noundef %42)
  store ptr %43, ptr %7, align 8
  %44 = load ptr, ptr %6, align 8
  %45 = load ptr, ptr %5, align 8
  %46 = load i64, ptr %45, align 4
  %47 = lshr i64 %46, 32
  %48 = and i64 %47, 1
  %49 = trunc i64 %48 to i32
  %50 = call ptr @Aig_NotCond(ptr noundef %44, i32 noundef %49)
  store ptr %50, ptr %6, align 8
  %51 = load ptr, ptr %7, align 8
  %52 = load ptr, ptr %5, align 8
  %53 = load i64, ptr %52, align 4
  %54 = lshr i64 %53, 33
  %55 = and i64 %54, 1
  %56 = trunc i64 %55 to i32
  %57 = call ptr @Aig_NotCond(ptr noundef %51, i32 noundef %56)
  store ptr %57, ptr %7, align 8
  %58 = load ptr, ptr %4, align 8
  %59 = getelementptr inbounds %struct.Dar_Man_t_, ptr %58, i32 0, i32 1
  %60 = load ptr, ptr %59, align 8
  %61 = load ptr, ptr %6, align 8
  %62 = load ptr, ptr %7, align 8
  %63 = call ptr @Aig_And(ptr noundef %60, ptr noundef %61, ptr noundef %62)
  %64 = load ptr, ptr %8, align 8
  %65 = getelementptr inbounds %struct.Dar_LibDat_t_, ptr %64, i32 0, i32 0
  store ptr %63, ptr %65, align 8
  %66 = load ptr, ptr %8, align 8
  %67 = getelementptr inbounds %struct.Dar_LibDat_t_, ptr %66, i32 0, i32 0
  %68 = load ptr, ptr %67, align 8
  store ptr %68, ptr %3, align 8
  br label %69

69:                                               ; preds = %26, %22
  %70 = load ptr, ptr %3, align 8
  ret ptr %70
}