; Function Attrs: nounwind uwtable
define ptr @Dar_LibBuildBest_rec(ptr noundef %0, ptr noundef readonly captures(none) %1) local_unnamed_addr #0 {
  %3 = load ptr, ptr @s_DarLib, align 8
  %4 = getelementptr inbounds nuw i8, ptr %3, i64 16096
  %5 = load ptr, ptr %4, align 8
  %6 = load i64, ptr %1, align 4
  %7 = lshr i64 %6, 36
  %8 = getelementptr inbounds nuw %struct.Dar_LibDat_t_, ptr %5, i64 %7
  %9 = load ptr, ptr %8, align 8
  %.not = icmp eq ptr %9, null
  br i1 %.not, label %10, label %common.ret19

common.ret19:                                     ; preds = %2, %10
  %common.ret19.op = phi ptr [ %33, %10 ], [ %9, %2 ]
  ret ptr %common.ret19.op

10:                                               ; preds = %2
  %11 = and i64 %6, 65535
  %.val18 = load ptr, ptr %3, align 8
  %12 = getelementptr inbounds nuw %struct.Dar_LibObj_t_, ptr %.val18, i64 %11
  %13 = tail call ptr @Dar_LibBuildBest_rec(ptr noundef %0, ptr noundef %12)
  %14 = load ptr, ptr @s_DarLib, align 8
  %15 = load i64, ptr %1, align 4
  %16 = lshr i64 %15, 16
  %.val = load ptr, ptr %14, align 8
  %17 = and i64 %16, 65535
  %18 = getelementptr inbounds nuw %struct.Dar_LibObj_t_, ptr %.val, i64 %17
  %19 = tail call ptr @Dar_LibBuildBest_rec(ptr noundef %0, ptr noundef %18)
  %20 = load i64, ptr %1, align 4
  %21 = lshr i64 %20, 32
  %22 = and i64 %21, 1
  %23 = ptrtoint ptr %13 to i64
  %24 = xor i64 %22, %23
  %25 = inttoptr i64 %24 to ptr
  %26 = lshr i64 %20, 33
  %27 = and i64 %26, 1
  %28 = ptrtoint ptr %19 to i64
  %29 = xor i64 %27, %28
  %30 = inttoptr i64 %29 to ptr
  %31 = getelementptr inbounds nuw i8, ptr %0, i64 8
  %32 = load ptr, ptr %31, align 8
  %33 = tail call ptr @Aig_And(ptr noundef %32, ptr noundef %25, ptr noundef %30) #20
  store ptr %33, ptr %8, align 8
  br label %common.ret19
}